target datalayout = "e-m:e-p270:32:32-p271:32:32-p272:64:64-i64:64-i128:128-f80:128-n8:16:32:64-S128"
target triple = "x86_64-pc-linux-gnu"

; Function Attrs: nounwind uwtable
define hidden i32 @X509_NAME_add_entry_by_txt(ptr noundef %0, ptr noundef %1, i32 noundef %2, ptr noundef %3, i32 noundef %4, i32 noundef %5, i32 noundef %6) #0 {
  %8 = alloca i32, align 4
  %9 = alloca ptr, align 8
  %10 = alloca ptr, align 8
  %11 = alloca i32, align 4
  %12 = alloca ptr, align 8
  %13 = alloca i32, align 4
  %14 = alloca i32, align 4
  %15 = alloca i32, align 4
  %16 = alloca ptr, align 8
  %17 = alloca i32, align 4
  %18 = alloca i32, align 4
  store ptr %0, ptr %9, align 8, !tbaa !6
  store ptr %1, ptr %10, align 8, !tbaa !13
  store i32 %2, ptr %11, align 4, !tbaa !11
  store ptr %3, ptr %12, align 8, !tbaa !13
  store i32 %4, ptr %13, align 4, !tbaa !11
  store i32 %5, ptr %14, align 4, !tbaa !11
  store i32 %6, ptr %15, align 4, !tbaa !11
  call void @llvm.lifetime.start.p0(i64 8, ptr %16) #5
  call void @llvm.lifetime.start.p0(i64 4, ptr %17) #5
  %19 = load ptr, ptr %10, align 8, !tbaa !13
  %20 = load i32, ptr %11, align 4, !tbaa !11
  %21 = load ptr, ptr %12, align 8, !tbaa !13
  %22 = load i32, ptr %13, align 4, !tbaa !11
  %23 = call ptr @X509_NAME_ENTRY_create_by_txt(ptr noundef null, ptr noundef %19, i32 noundef %20, ptr noundef %21, i32 noundef %22)
  store ptr %23, ptr %16, align 8, !tbaa !29
  %24 = load ptr, ptr %16, align 8, !tbaa !29
  %25 = icmp ne ptr %24, null
  br i1 %25, label %27, label %26

26:                                               ; preds = %7
  store i32 0, ptr %8, align 4
  store i32 1, ptr %18, align 4
  br label %35

27:                                               ; preds = %7
  %28 = load ptr, ptr %9, align 8, !tbaa !6
  %29 = load ptr, ptr %16, align 8, !tbaa !29
  %30 = load i32, ptr %14, align 4, !tbaa !11
  %31 = load i32, ptr %15, align 4, !tbaa !11
  %32 = call i32 @X509_NAME_add_entry(ptr noundef %28, ptr noundef %29, i32 noundef %30, i32 noundef %31)
  store i32 %32, ptr %17, align 4, !tbaa !11
  %33 = load ptr, ptr %16, align 8, !tbaa !29
  call void @X509_NAME_ENTRY_free(ptr noundef %33)
  %34 = load i32, ptr %17, align 4, !tbaa !11
  store i32 %34, ptr %8, align 4
  store i32 1, ptr %18, align 4
  br label %35

35:                                               ; preds = %27, %26
  call void @llvm.lifetime.end.p0(i64 4, ptr %17) #5
  call void @llvm.lifetime.end.p0(i64 8, ptr %16) #5
  %36 = load i32, ptr %8, align 4
  ret i32 %36
}